target datalayout = "e-m:e-p270:32:32-p271:32:32-p272:64:64-i64:64-i128:128-f80:128-n8:16:32:64-S128"
target triple = "x86_64-pc-linux-gnu"

%struct.timeval = type { i64, i64 }
%struct.evhttp = type { %struct.anon.9, %struct.boundq, %struct.httpcbq, %struct.evconq, %struct.evwsq, i32, i32, %struct.vhostsq, %struct.aliasq, ptr, %struct.timeval, %struct.timeval, i64, i64, i32, ptr, i32, ptr, ptr, ptr, ptr, ptr, ptr, ptr, ptr, ptr, ptr }
%struct.anon.9 = type { ptr, ptr }
%struct.boundq = type { ptr, ptr }
%struct.httpcbq = type { ptr, ptr }
%struct.evconq = type { ptr, ptr }
%struct.evwsq = type { ptr, ptr }
%struct.vhostsq = type { ptr, ptr }
%struct.aliasq = type { ptr, ptr }

; Function Attrs: nounwind uwtable
define internal void @evhttp_set_timeout_tv_(ptr noundef %0, ptr noundef %1, i32 noundef %2) #0 {
  %4 = alloca ptr, align 8
  %5 = alloca ptr, align 8
  %6 = alloca i32, align 4
  store ptr %0, ptr %4, align 8
  store ptr %1, ptr %5, align 8
  store i32 %2, ptr %6, align 4
  %7 = load ptr, ptr %5, align 8
  %8 = icmp eq ptr %7, null
  br i1 %8, label %9, label %19

9:                                                ; preds = %3
  %10 = load i32, ptr %6, align 4
  %11 = icmp ne i32 %10, -1
  br i1 %11, label %12, label %19

12:                                               ; preds = %9
  %13 = load i32, ptr %6, align 4
  %14 = sext i32 %13 to i64
  %15 = load ptr, ptr %4, align 8
  %16 = getelementptr inbounds nuw %struct.timeval, ptr %15, i32 0, i32 0
  store i64 %14, ptr %16, align 8
  %17 = load ptr, ptr %4, align 8
  %18 = getelementptr inbounds nuw %struct.timeval, ptr %17, i32 0, i32 1
  store i64 0, ptr %18, align 8
  br label %30

19:                                               ; preds = %9, %3
  %20 = load ptr, ptr %5, align 8
  %21 = icmp ne ptr %20, null
  br i1 %21, label %22, label %25

22:                                               ; preds = %19
  %23 = load ptr, ptr %4, align 8
  %24 = load ptr, ptr %5, align 8
  call void @llvm.memcpy.p0.p0.i64(ptr align 8 %23, ptr align 8 %24, i64 16, i1 false)
  br label %30

25:                                               ; preds = %19
  %26 = load ptr, ptr %4, align 8
  %27 = getelementptr inbounds nuw %struct.timeval, ptr %26, i32 0, i32 1
  store i64 0, ptr %27, align 8
  %28 = load ptr, ptr %4, align 8
  %29 = getelementptr inbounds nuw %struct.timeval, ptr %28, i32 0, i32 0
  store i64 0, ptr %29, align 8
  br label %30

30:                                               ; preds = %12, %25, %22
  ret void
}

; Function Attrs: nounwind uwtable
define void @evhttp_set_read_timeout_tv(ptr noundef %0, ptr noundef %1) #0 {
  %3 = alloca ptr, align 8
  %4 = alloca ptr, align 8
  store ptr %0, ptr %3, align 8
  store ptr %1, ptr %4, align 8
  %5 = load ptr, ptr %3, align 8
  %6 = getelementptr inbounds nuw %struct.evhttp, ptr %5, i32 0, i32 10
  %7 = load ptr, ptr %4, align 8
  call void @evhttp_set_timeout_tv_(ptr noundef %6, ptr noundef %7, i32 noundef -1)
  ret void
}