; Function Attrs: mustprogress nofree norecurse nosync nounwind willreturn memory(argmem: readwrite) uwtable
define void @evhttp_set_read_timeout_tv(ptr noundef writeonly captures(none) initializes((128, 144)) %0, ptr noundef readonly captures(address_is_null) %1) local_unnamed_addr #7 {
  %3 = getelementptr inbounds nuw i8, ptr %0, i64 128
  %4 = icmp eq ptr %1, null
  br i1 %4, label %6, label %5

5:                                                ; preds = %2
  tail call void @llvm.memcpy.p0.p0.i64(ptr noundef nonnull align 8 dereferenceable(16) %3, ptr noundef nonnull readonly align 8 dereferenceable(16) %1, i64 16, i1 false)
  br label %evhttp_set_timeout_tv_.exit

6:                                                ; preds = %2
  tail call void @llvm.memset.p0.i64(ptr noundef nonnull align 8 dereferenceable(16) %3, i8 0, i64 16, i1 false)
  br label %evhttp_set_timeout_tv_.exit

evhttp_set_timeout_tv_.exit:                      ; preds = %5, %6
  ret void
}